target datalayout = "e-m:e-p270:32:32-p271:32:32-p272:64:64-i64:64-i128:128-f80:128-n8:16:32:64-S128"
target triple = "x86_64-pc-linux-gnu"

%"class.llvm::CombinerHelper" = type { ptr, ptr, ptr, ptr, ptr, i8, ptr, ptr, ptr }
%"class.llvm::Register" = type { i32 }

; Function Attrs: mustprogress nounwind uwtable
define dso_local noundef i32 @_ZNK4llvm14CombinerHelper23computeRetValAgainstNaNENS_8RegisterES1_b(ptr noundef nonnull align 8 dereferenceable(72) %0, i32 %1, i32 %2, i1 noundef zeroext %3) #1 align 2 {
  %5 = alloca i32, align 4
  %6 = alloca %"class.llvm::Register", align 4
  %7 = alloca %"class.llvm::Register", align 4
  %8 = alloca ptr, align 8
  %9 = alloca i8, align 1
  %10 = alloca i8, align 1
  %11 = alloca %"class.llvm::Register", align 4
  %12 = alloca i8, align 1
  %13 = alloca %"class.llvm::Register", align 4
  %14 = getelementptr inbounds nuw %"class.llvm::Register", ptr %6, i32 0, i32 0
  store i32 %1, ptr %14, align 4
  %15 = getelementptr inbounds nuw %"class.llvm::Register", ptr %7, i32 0, i32 0
  store i32 %2, ptr %15, align 4
  store ptr %0, ptr %8, align 8
  %16 = zext i1 %3 to i8
  store i8 %16, ptr %9, align 1
  %17 = load ptr, ptr %8, align 8
  call void @llvm.memcpy.p0.p0.i64(ptr align 4 %11, ptr align 4 %6, i64 4, i1 false)
  %18 = getelementptr inbounds nuw %"class.llvm::CombinerHelper", ptr %17, i32 0, i32 1
  %19 = load ptr, ptr %18, align 8
  %20 = getelementptr inbounds nuw %"class.llvm::Register", ptr %11, i32 0, i32 0
  %21 = load i32, ptr %20, align 4
  %22 = call noundef zeroext i1 @_ZN4llvm15isKnownNeverNaNENS_8RegisterERKNS_19MachineRegisterInfoEb(i32 %21, ptr noundef nonnull align 8 dereferenceable(512) %19, i1 noundef zeroext false)
  %23 = zext i1 %22 to i8
  store i8 %23, ptr %10, align 1
  call void @llvm.memcpy.p0.p0.i64(ptr align 4 %13, ptr align 4 %7, i64 4, i1 false)
  %24 = getelementptr inbounds nuw %"class.llvm::CombinerHelper", ptr %17, i32 0, i32 1
  %25 = load ptr, ptr %24, align 8
  %26 = getelementptr inbounds nuw %"class.llvm::Register", ptr %13, i32 0, i32 0
  %27 = load i32, ptr %26, align 4
  %28 = call noundef zeroext i1 @_ZN4llvm15isKnownNeverNaNENS_8RegisterERKNS_19MachineRegisterInfoEb(i32 %27, ptr noundef nonnull align 8 dereferenceable(512) %25, i1 noundef zeroext false)
  %29 = zext i1 %28 to i8
  store i8 %29, ptr %12, align 1
  %30 = load i8, ptr %10, align 1
  %31 = trunc i8 %30 to i1
  br i1 %31, label %36, label %32

32:                                               ; preds = %4
  %33 = load i8, ptr %12, align 1
  %34 = trunc i8 %33 to i1
  br i1 %34, label %36, label %35

35:                                               ; preds = %32
  store i32 0, ptr %5, align 4
  br label %54

36:                                               ; preds = %32, %4
  %37 = load i8, ptr %10, align 1
  %38 = trunc i8 %37 to i1
  br i1 %38, label %39, label %43

39:                                               ; preds = %36
  %40 = load i8, ptr %12, align 1
  %41 = trunc i8 %40 to i1
  br i1 %41, label %42, label %43

42:                                               ; preds = %39
  store i32 3, ptr %5, align 4
  br label %54

43:                                               ; preds = %39, %36
  %44 = load i8, ptr %9, align 1
  %45 = trunc i8 %44 to i1
  br i1 %45, label %46, label %50

46:                                               ; preds = %43
  %47 = load i8, ptr %10, align 1
  %48 = trunc i8 %47 to i1
  %49 = select i1 %48, i32 1, i32 2
  store i32 %49, ptr %5, align 4
  br label %54

50:                                               ; preds = %43
  %51 = load i8, ptr %10, align 1
  %52 = trunc i8 %51 to i1
  %53 = select i1 %52, i32 2, i32 1
  store i32 %53, ptr %5, align 4
  br label %54

54:                                               ; preds = %50, %46, %42, %35
  %55 = load i32, ptr %5, align 4
  ret i32 %55
}