; Function Attrs: mustprogress nounwind uwtable
define dso_local noundef range(i32 0, 4) i32 @_ZNK4llvm14CombinerHelper23computeRetValAgainstNaNENS_8RegisterES1_b(ptr nocapture noundef nonnull readonly align 8 dereferenceable(72) %0, i32 %1, i32 %2, i1 noundef zeroext %3) local_unnamed_addr #0 align 2 {
  %5 = getelementptr inbounds nuw i8, ptr %0, i64 8
  %6 = load ptr, ptr %5, align 8
  %7 = tail call noundef zeroext i1 @_ZN4llvm15isKnownNeverNaNENS_8RegisterERKNS_19MachineRegisterInfoEb(i32 %1, ptr noundef nonnull align 8 dereferenceable(512) %6, i1 noundef zeroext false) #27
  %8 = load ptr, ptr %5, align 8
  %9 = tail call noundef zeroext i1 @_ZN4llvm15isKnownNeverNaNENS_8RegisterERKNS_19MachineRegisterInfoEb(i32 %2, ptr noundef nonnull align 8 dereferenceable(512) %8, i1 noundef zeroext false) #27
  %brmerge = or i1 %7, %9
  br i1 %brmerge, label %10, label %16

10:                                               ; preds = %4
  %brmerge12.demorgan = and i1 %7, %9
  br i1 %brmerge12.demorgan, label %16, label %11

11:                                               ; preds = %10
  br i1 %3, label %12, label %14

12:                                               ; preds = %11
  %13 = select i1 %7, i32 1, i32 2
  br label %16

14:                                               ; preds = %11
  %15 = select i1 %7, i32 2, i32 1
  br label %16

16:                                               ; preds = %10, %4, %14, %12
  %.0 = phi i32 [ %13, %12 ], [ %15, %14 ], [ 0, %4 ], [ 3, %10 ]
  ret i32 %.0
}